; Function Attrs: nounwind uwtable
define hidden i32 @lxb_html_tree_append_attributes_from_element(ptr noundef %0, ptr noundef %1, ptr nocapture noundef readonly %2, i64 noundef %3) local_unnamed_addr #0 {
  %5 = getelementptr inbounds i8, ptr %2, i64 128
  %6 = getelementptr inbounds i8, ptr %1, i64 32
  %.01927 = load ptr, ptr %5, align 8
  %.not28 = icmp eq ptr %.01927, null
  br i1 %.not28, label %._crit_edge, label %.lr.ph

.lr.ph:                                           ; preds = %4
  %7 = getelementptr inbounds i8, ptr %0, i64 104
  br label %8

8:                                                ; preds = %.lr.ph, %21
  %.01929 = phi ptr [ %.01927, %.lr.ph ], [ %.019, %21 ]
  %9 = load ptr, ptr %6, align 8
  %10 = tail call ptr @lxb_dom_attr_interface_create(ptr noundef %9) #9
  %11 = icmp eq ptr %10, null
  br i1 %11, label %._crit_edge, label %12

12:                                               ; preds = %8
  %13 = tail call i32 @lxb_dom_attr_clone_name_value(ptr noundef nonnull %.01929, ptr noundef nonnull %10) #9
  %.not24 = icmp eq i32 %13, 0
  br i1 %.not24, label %14, label %._crit_edge

14:                                               ; preds = %12
  %15 = getelementptr inbounds i8, ptr %.01929, i64 24
  %16 = load i64, ptr %15, align 8
  %17 = getelementptr inbounds i8, ptr %10, i64 24
  store i64 %16, ptr %17, align 8
  %18 = load ptr, ptr %7, align 8
  %.not25 = icmp eq ptr %18, null
  br i1 %.not25, label %21, label %19

19:                                               ; preds = %14
  %20 = tail call i32 %18(ptr noundef nonnull %0, ptr noundef nonnull %10, ptr noundef null) #9
  %.not26 = icmp eq i32 %20, 0
  br i1 %.not26, label %21, label %._crit_edge

21:                                               ; preds = %19, %14
  %22 = tail call i32 @lxb_dom_element_attr_append(ptr noundef nonnull %1, ptr noundef nonnull %.01929) #9
  %23 = getelementptr inbounds i8, ptr %.01929, i64 136
  %.019 = load ptr, ptr %23, align 8
  %.not = icmp eq ptr %.019, null
  br i1 %.not, label %._crit_edge, label %8

._crit_edge:                                      ; preds = %8, %12, %19, %21, %4
  %.0 = phi i32 [ 0, %4 ], [ 0, %21 ], [ %20, %19 ], [ %13, %12 ], [ 2, %8 ]
  ret i32 %.0
}